; Function Attrs: mustprogress uwtable
define i64 @_ZN9grpc_core29GetMaxRecvSizeFromChannelArgsERKNS_11ChannelArgsE(ptr noundef nonnull align 8 dereferenceable(8) %args) local_unnamed_addr #4 personality ptr @__gxx_personality_v0 {
entry:
  %call = tail call noundef zeroext i1 @_ZNK9grpc_core11ChannelArgs16WantMinimalStackEv(ptr noundef nonnull align 8 dereferenceable(8) %args)
  br i1 %call, label %return, label %if.end

if.end:                                           ; preds = %entry
  %call2 = tail call i64 @_ZNK9grpc_core11ChannelArgs6GetIntESt17basic_string_viewIcSt11char_traitsIcEE(ptr noundef nonnull align 8 dereferenceable(8) %args, i64 31, ptr nonnull @.str)
  %ref.tmp.sroa.0.0.extract.trunc = trunc i64 %call2 to i32
  %0 = and i64 %call2, 4294967296
  %tobool.i.not.i = icmp eq i64 %0, 0
  %retval.0.i = select i1 %tobool.i.not.i, i32 4194304, i32 %ref.tmp.sroa.0.0.extract.trunc
  %1 = and i32 %retval.0.i, -2147483648
  %2 = zext i32 %1 to i64
  %3 = shl nuw nsw i64 %2, 1
  %4 = zext i32 %retval.0.i to i64
  %5 = or disjoint i64 %3, %4
  %6 = xor i64 %5, 4294967296
  br label %return

return:                                           ; preds = %if.end, %entry
  %retval.sroa.0.0.insert.insert = phi i64 [ 0, %entry ], [ %6, %if.end ]
  ret i64 %retval.sroa.0.0.insert.insert
}